target datalayout = "e-m:e-p270:32:32-p271:32:32-p272:64:64-i64:64-i128:128-f80:128-n8:16:32:64-S128"
target triple = "x86_64-pc-linux-gnu"

%struct._lv_buttonmatrix_t = type { %struct._lv_obj_t, ptr, ptr, ptr, i32, i32, i32, i8 }
%struct._lv_obj_t = type { ptr, ptr, ptr, ptr, ptr, %struct.lv_area_t, i32, i16, i16 }
%struct.lv_area_t = type { i32, i32, i32, i32 }
%union.lv_style_value_t = type { ptr }

; Function Attrs: inlinehint nounwind uwtable
define internal void @lv_area_copy(ptr noundef %0, ptr noundef %1) #3 {
  %3 = alloca ptr, align 8
  %4 = alloca ptr, align 8
  store ptr %0, ptr %3, align 8, !tbaa !3
  store ptr %1, ptr %4, align 8, !tbaa !3
  %5 = load ptr, ptr %4, align 8, !tbaa !3
  %6 = getelementptr inbounds nuw %struct.lv_area_t, ptr %5, i32 0, i32 0
  %7 = load i32, ptr %6, align 4, !tbaa !29
  %8 = load ptr, ptr %3, align 8, !tbaa !3
  %9 = getelementptr inbounds nuw %struct.lv_area_t, ptr %8, i32 0, i32 0
  store i32 %7, ptr %9, align 4, !tbaa !29
  %10 = load ptr, ptr %4, align 8, !tbaa !3
  %11 = getelementptr inbounds nuw %struct.lv_area_t, ptr %10, i32 0, i32 1
  %12 = load i32, ptr %11, align 4, !tbaa !30
  %13 = load ptr, ptr %3, align 8, !tbaa !3
  %14 = getelementptr inbounds nuw %struct.lv_area_t, ptr %13, i32 0, i32 1
  store i32 %12, ptr %14, align 4, !tbaa !30
  %15 = load ptr, ptr %4, align 8, !tbaa !3
  %16 = getelementptr inbounds nuw %struct.lv_area_t, ptr %15, i32 0, i32 2
  %17 = load i32, ptr %16, align 4, !tbaa !31
  %18 = load ptr, ptr %3, align 8, !tbaa !3
  %19 = getelementptr inbounds nuw %struct.lv_area_t, ptr %18, i32 0, i32 2
  store i32 %17, ptr %19, align 4, !tbaa !31
  %20 = load ptr, ptr %4, align 8, !tbaa !3
  %21 = getelementptr inbounds nuw %struct.lv_area_t, ptr %20, i32 0, i32 3
  %22 = load i32, ptr %21, align 4, !tbaa !41
  %23 = load ptr, ptr %3, align 8, !tbaa !3
  %24 = getelementptr inbounds nuw %struct.lv_area_t, ptr %23, i32 0, i32 3
  store i32 %22, ptr %24, align 4, !tbaa !41
  ret void
}

; Function Attrs: inlinehint nounwind uwtable
define internal i32 @lv_obj_get_style_pad_column(ptr noundef %0, i32 noundef %1) #3 {
  %3 = alloca ptr, align 8
  %4 = alloca i32, align 4
  %5 = alloca %union.lv_style_value_t, align 8
  store ptr %0, ptr %3, align 8, !tbaa !3
  store i32 %1, ptr %4, align 4, !tbaa !18
  call void @llvm.lifetime.start.p0(i64 8, ptr %5) #4
  %6 = load ptr, ptr %3, align 8, !tbaa !3
  %7 = load i32, ptr %4, align 4, !tbaa !18
  %8 = call ptr @lv_obj_get_style_prop(ptr noundef %6, i32 noundef %7, i8 noundef zeroext 21)
  %9 = getelementptr inbounds nuw %union.lv_style_value_t, ptr %5, i32 0, i32 0
  store ptr %8, ptr %9, align 8
  %10 = load i32, ptr %5, align 8, !tbaa !36
  call void @llvm.lifetime.end.p0(i64 8, ptr %5) #4
  ret i32 %10
}

; Function Attrs: inlinehint nounwind uwtable
define internal i32 @lv_obj_get_style_pad_row(ptr noundef %0, i32 noundef %1) #3 {
  %3 = alloca ptr, align 8
  %4 = alloca i32, align 4
  %5 = alloca %union.lv_style_value_t, align 8
  store ptr %0, ptr %3, align 8, !tbaa !3
  store i32 %1, ptr %4, align 4, !tbaa !18
  call void @llvm.lifetime.start.p0(i64 8, ptr %5) #4
  %6 = load ptr, ptr %3, align 8, !tbaa !3
  %7 = load i32, ptr %4, align 4, !tbaa !18
  %8 = call ptr @lv_obj_get_style_prop(ptr noundef %6, i32 noundef %7, i8 noundef zeroext 20)
  %9 = getelementptr inbounds nuw %union.lv_style_value_t, ptr %5, i32 0, i32 0
  store ptr %8, ptr %9, align 8
  %10 = load i32, ptr %5, align 8, !tbaa !36
  call void @llvm.lifetime.end.p0(i64 8, ptr %5) #4
  ret i32 %10
}

; Function Attrs: inlinehint nounwind uwtable
define internal i32 @lv_obj_get_style_pad_bottom(ptr noundef %0, i32 noundef %1) #3 {
  %3 = alloca ptr, align 8
  %4 = alloca i32, align 4
  %5 = alloca %union.lv_style_value_t, align 8
  store ptr %0, ptr %3, align 8, !tbaa !3
  store i32 %1, ptr %4, align 4, !tbaa !18
  call void @llvm.lifetime.start.p0(i64 8, ptr %5) #4
  %6 = load ptr, ptr %3, align 8, !tbaa !3
  %7 = load i32, ptr %4, align 4, !tbaa !18
  %8 = call ptr @lv_obj_get_style_prop(ptr noundef %6, i32 noundef %7, i8 noundef zeroext 17)
  %9 = getelementptr inbounds nuw %union.lv_style_value_t, ptr %5, i32 0, i32 0
  store ptr %8, ptr %9, align 8
  %10 = load i32, ptr %5, align 8, !tbaa !36
  call void @llvm.lifetime.end.p0(i64 8, ptr %5) #4
  ret i32 %10
}

; Function Attrs: inlinehint nounwind uwtable
define internal i32 @lv_obj_get_style_pad_top(ptr noundef %0, i32 noundef %1) #3 {
  %3 = alloca ptr, align 8
  %4 = alloca i32, align 4
  %5 = alloca %union.lv_style_value_t, align 8
  store ptr %0, ptr %3, align 8, !tbaa !3
  store i32 %1, ptr %4, align 4, !tbaa !18
  call void @llvm.lifetime.start.p0(i64 8, ptr %5) #4
  %6 = load ptr, ptr %3, align 8, !tbaa !3
  %7 = load i32, ptr %4, align 4, !tbaa !18
  %8 = call ptr @lv_obj_get_style_prop(ptr noundef %6, i32 noundef %7, i8 noundef zeroext 16)
  %9 = getelementptr inbounds nuw %union.lv_style_value_t, ptr %5, i32 0, i32 0
  store ptr %8, ptr %9, align 8
  %10 = load i32, ptr %5, align 8, !tbaa !36
  call void @llvm.lifetime.end.p0(i64 8, ptr %5) #4
  ret i32 %10
}

; Function Attrs: inlinehint nounwind uwtable
define internal i32 @lv_obj_get_style_pad_right(ptr noundef %0, i32 noundef %1) #3 {
  %3 = alloca ptr, align 8
  %4 = alloca i32, align 4
  %5 = alloca %union.lv_style_value_t, align 8
  store ptr %0, ptr %3, align 8, !tbaa !3
  store i32 %1, ptr %4, align 4, !tbaa !18
  call void @llvm.lifetime.start.p0(i64 8, ptr %5) #4
  %6 = load ptr, ptr %3, align 8, !tbaa !3
  %7 = load i32, ptr %4, align 4, !tbaa !18
  %8 = call ptr @lv_obj_get_style_prop(ptr noundef %6, i32 noundef %7, i8 noundef zeroext 19)
  %9 = getelementptr inbounds nuw %union.lv_style_value_t, ptr %5, i32 0, i32 0
  store ptr %8, ptr %9, align 8
  %10 = load i32, ptr %5, align 8, !tbaa !36
  call void @llvm.lifetime.end.p0(i64 8, ptr %5) #4
  ret i32 %10
}

; Function Attrs: inlinehint nounwind uwtable
define internal i32 @lv_obj_get_style_pad_left(ptr noundef %0, i32 noundef %1) #3 {
  %3 = alloca ptr, align 8
  %4 = alloca i32, align 4
  %5 = alloca %union.lv_style_value_t, align 8
  store ptr %0, ptr %3, align 8, !tbaa !3
  store i32 %1, ptr %4, align 4, !tbaa !18
  call void @llvm.lifetime.start.p0(i64 8, ptr %5) #4
  %6 = load ptr, ptr %3, align 8, !tbaa !3
  %7 = load i32, ptr %4, align 4, !tbaa !18
  %8 = call ptr @lv_obj_get_style_prop(ptr noundef %6, i32 noundef %7, i8 noundef zeroext 18)
  %9 = getelementptr inbounds nuw %union.lv_style_value_t, ptr %5, i32 0, i32 0
  store ptr %8, ptr %9, align 8
  %10 = load i32, ptr %5, align 8, !tbaa !36
  call void @llvm.lifetime.end.p0(i64 8, ptr %5) #4
  ret i32 %10
}

; Function Attrs: nounwind uwtable
define internal i32 @get_button_from_point(ptr noundef %0, ptr noundef %1) #0 {
  %3 = alloca ptr, align 8
  %4 = alloca ptr, align 8
  %5 = alloca %struct.lv_area_t, align 4
  %6 = alloca %struct.lv_area_t, align 4
  %7 = alloca ptr, align 8
  %8 = alloca i32, align 4
  %9 = alloca i32, align 4
  %10 = alloca i32, align 4
  %11 = alloca i32, align 4
  %12 = alloca i32, align 4
  %13 = alloca i32, align 4
  %14 = alloca i32, align 4
  %15 = alloca i32, align 4
  %16 = alloca i32, align 4
  store ptr %0, ptr %3, align 8, !tbaa !3
  store ptr %1, ptr %4, align 8, !tbaa !3
  call void @llvm.lifetime.start.p0(i64 16, ptr %5) #4
  call void @llvm.lifetime.start.p0(i64 16, ptr %6) #4
  call void @llvm.lifetime.start.p0(i64 8, ptr %7) #4
  %17 = load ptr, ptr %3, align 8, !tbaa !3
  store ptr %17, ptr %7, align 8, !tbaa !3
  call void @llvm.lifetime.start.p0(i64 4, ptr %8) #4
  %18 = load ptr, ptr %3, align 8, !tbaa !3
  call void @lv_obj_get_coords(ptr noundef %18, ptr noundef %5)
  call void @llvm.lifetime.start.p0(i64 4, ptr %9) #4
  %19 = load ptr, ptr %3, align 8, !tbaa !3
  %20 = call i32 @lv_obj_get_width(ptr noundef %19)
  store i32 %20, ptr %9, align 4, !tbaa !18
  call void @llvm.lifetime.start.p0(i64 4, ptr %10) #4
  %21 = load ptr, ptr %3, align 8, !tbaa !3
  %22 = call i32 @lv_obj_get_height(ptr noundef %21)
  store i32 %22, ptr %10, align 4, !tbaa !18
  call void @llvm.lifetime.start.p0(i64 4, ptr %11) #4
  %23 = load ptr, ptr %3, align 8, !tbaa !3
  %24 = call i32 @lv_obj_get_style_pad_left(ptr noundef %23, i32 noundef 0)
  store i32 %24, ptr %11, align 4, !tbaa !18
  call void @llvm.lifetime.start.p0(i64 4, ptr %12) #4
  %25 = load ptr, ptr %3, align 8, !tbaa !3
  %26 = call i32 @lv_obj_get_style_pad_right(ptr noundef %25, i32 noundef 0)
  store i32 %26, ptr %12, align 4, !tbaa !18
  call void @llvm.lifetime.start.p0(i64 4, ptr %13) #4
  %27 = load ptr, ptr %3, align 8, !tbaa !3
  %28 = call i32 @lv_obj_get_style_pad_top(ptr noundef %27, i32 noundef 0)
  store i32 %28, ptr %13, align 4, !tbaa !18
  call void @llvm.lifetime.start.p0(i64 4, ptr %14) #4
  %29 = load ptr, ptr %3, align 8, !tbaa !3
  %30 = call i32 @lv_obj_get_style_pad_bottom(ptr noundef %29, i32 noundef 0)
  store i32 %30, ptr %14, align 4, !tbaa !18
  call void @llvm.lifetime.start.p0(i64 4, ptr %15) #4
  %31 = load ptr, ptr %3, align 8, !tbaa !3
  %32 = call i32 @lv_obj_get_style_pad_row(ptr noundef %31, i32 noundef 0)
  store i32 %32, ptr %15, align 4, !tbaa !18
  call void @llvm.lifetime.start.p0(i64 4, ptr %16) #4
  %33 = load ptr, ptr %3, align 8, !tbaa !3
  %34 = call i32 @lv_obj_get_style_pad_column(ptr noundef %33, i32 noundef 0)
  store i32 %34, ptr %16, align 4, !tbaa !18
  %35 = load i32, ptr %15, align 4, !tbaa !18
  %36 = sdiv i32 %35, 2
  %37 = add nsw i32 %36, 1
  %38 = load i32, ptr %15, align 4, !tbaa !18
  %39 = and i32 %38, 1
  %40 = add nsw i32 %37, %39
  store i32 %40, ptr %15, align 4, !tbaa !18
  %41 = load i32, ptr %16, align 4, !tbaa !18
  %42 = sdiv i32 %41, 2
  %43 = add nsw i32 %42, 1
  %44 = load i32, ptr %16, align 4, !tbaa !18
  %45 = and i32 %44, 1
  %46 = add nsw i32 %43, %45
  store i32 %46, ptr %16, align 4, !tbaa !18
  %47 = load i32, ptr %15, align 4, !tbaa !18
  %48 = icmp slt i32 %47, 13
  br i1 %48, label %49, label %51

49:                                               ; preds = %2
  %50 = load i32, ptr %15, align 4, !tbaa !18
  br label %52

51:                                               ; preds = %2
  br label %52

52:                                               ; preds = %51, %49
  %53 = phi i32 [ %50, %49 ], [ 13, %51 ]
  store i32 %53, ptr %15, align 4, !tbaa !18
  %54 = load i32, ptr %16, align 4, !tbaa !18
  %55 = icmp slt i32 %54, 13
  br i1 %55, label %56, label %58

56:                                               ; preds = %52
  %57 = load i32, ptr %16, align 4, !tbaa !18
  br label %59

58:                                               ; preds = %52
  br label %59

59:                                               ; preds = %58, %56
  %60 = phi i32 [ %57, %56 ], [ 13, %58 ]
  store i32 %60, ptr %16, align 4, !tbaa !18
  %61 = load i32, ptr %12, align 4, !tbaa !18
  %62 = icmp slt i32 %61, 13
  br i1 %62, label %63, label %65

63:                                               ; preds = %59
  %64 = load i32, ptr %12, align 4, !tbaa !18
  br label %66

65:                                               ; preds = %59
  br label %66

66:                                               ; preds = %65, %63
  %67 = phi i32 [ %64, %63 ], [ 13, %65 ]
  store i32 %67, ptr %12, align 4, !tbaa !18
  %68 = load i32, ptr %13, align 4, !tbaa !18
  %69 = icmp slt i32 %68, 13
  br i1 %69, label %70, label %72

70:                                               ; preds = %66
  %71 = load i32, ptr %13, align 4, !tbaa !18
  br label %73

72:                                               ; preds = %66
  br label %73

73:                                               ; preds = %72, %70
  %74 = phi i32 [ %71, %70 ], [ 13, %72 ]
  store i32 %74, ptr %13, align 4, !tbaa !18
  %75 = load i32, ptr %14, align 4, !tbaa !18
  %76 = icmp slt i32 %75, 13
  br i1 %76, label %77, label %79

77:                                               ; preds = %73
  %78 = load i32, ptr %14, align 4, !tbaa !18
  br label %80

79:                                               ; preds = %73
  br label %80

80:                                               ; preds = %79, %77
  %81 = phi i32 [ %78, %77 ], [ 13, %79 ]
  store i32 %81, ptr %14, align 4, !tbaa !18
  store i32 0, ptr %8, align 4, !tbaa !18
  br label %82

82:                                               ; preds = %215, %80
  %83 = load i32, ptr %8, align 4, !tbaa !18
  %84 = load ptr, ptr %7, align 8, !tbaa !3
  %85 = getelementptr inbounds nuw %struct._lv_buttonmatrix_t, ptr %84, i32 0, i32 4
  %86 = load i32, ptr %85, align 8, !tbaa !7
  %87 = icmp ult i32 %83, %86
  br i1 %87, label %88, label %218

88:                                               ; preds = %82
  %89 = load ptr, ptr %7, align 8, !tbaa !3
  %90 = getelementptr inbounds nuw %struct._lv_buttonmatrix_t, ptr %89, i32 0, i32 2
  %91 = load ptr, ptr %90, align 8, !tbaa !15
  %92 = load i32, ptr %8, align 4, !tbaa !18
  %93 = zext i32 %92 to i64
  %94 = getelementptr inbounds nuw %struct.lv_area_t, ptr %91, i64 %93
  call void @lv_area_copy(ptr noundef %6, ptr noundef %94)
  %95 = getelementptr inbounds nuw %struct.lv_area_t, ptr %6, i32 0, i32 0
  %96 = load i32, ptr %95, align 4, !tbaa !29
  %97 = load i32, ptr %11, align 4, !tbaa !18
  %98 = icmp sle i32 %96, %97
  br i1 %98, label %99, label %113

99:                                               ; preds = %88
  %100 = getelementptr inbounds nuw %struct.lv_area_t, ptr %5, i32 0, i32 0
  %101 = load i32, ptr %100, align 4, !tbaa !29
  %102 = load i32, ptr %11, align 4, !tbaa !18
  %103 = icmp slt i32 %102, 13
  br i1 %103, label %104, label %106

104:                                              ; preds = %99
  %105 = load i32, ptr %11, align 4, !tbaa !18
  br label %107

106:                                              ; preds = %99
  br label %107

107:                                              ; preds = %106, %104
  %108 = phi i32 [ %105, %104 ], [ 13, %106 ]
  %109 = sub nsw i32 %101, %108
  %110 = getelementptr inbounds nuw %struct.lv_area_t, ptr %6, i32 0, i32 0
  %111 = load i32, ptr %110, align 4, !tbaa !29
  %112 = add nsw i32 %111, %109
  store i32 %112, ptr %110, align 4, !tbaa !29
  br label %121

113:                                              ; preds = %88
  %114 = getelementptr inbounds nuw %struct.lv_area_t, ptr %5, i32 0, i32 0
  %115 = load i32, ptr %114, align 4, !tbaa !29
  %116 = load i32, ptr %16, align 4, !tbaa !18
  %117 = sub nsw i32 %115, %116
  %118 = getelementptr inbounds nuw %struct.lv_area_t, ptr %6, i32 0, i32 0
  %119 = load i32, ptr %118, align 4, !tbaa !29
  %120 = add nsw i32 %119, %117
  store i32 %120, ptr %118, align 4, !tbaa !29
  br label %121

121:                                              ; preds = %113, %107
  %122 = getelementptr inbounds nuw %struct.lv_area_t, ptr %6, i32 0, i32 1
  %123 = load i32, ptr %122, align 4, !tbaa !30
  %124 = load i32, ptr %13, align 4, !tbaa !18
  %125 = icmp sle i32 %123, %124
  br i1 %125, label %126, label %140

126:                                              ; preds = %121
  %127 = getelementptr inbounds nuw %struct.lv_area_t, ptr %5, i32 0, i32 1
  %128 = load i32, ptr %127, align 4, !tbaa !30
  %129 = load i32, ptr %13, align 4, !tbaa !18
  %130 = icmp slt i32 %129, 13
  br i1 %130, label %131, label %133

131:                                              ; preds = %126
  %132 = load i32, ptr %13, align 4, !tbaa !18
  br label %134

133:                                              ; preds = %126
  br label %134

134:                                              ; preds = %133, %131
  %135 = phi i32 [ %132, %131 ], [ 13, %133 ]
  %136 = sub nsw i32 %128, %135
  %137 = getelementptr inbounds nuw %struct.lv_area_t, ptr %6, i32 0, i32 1
  %138 = load i32, ptr %137, align 4, !tbaa !30
  %139 = add nsw i32 %138, %136
  store i32 %139, ptr %137, align 4, !tbaa !30
  br label %148

140:                                              ; preds = %121
  %141 = getelementptr inbounds nuw %struct.lv_area_t, ptr %5, i32 0, i32 1
  %142 = load i32, ptr %141, align 4, !tbaa !30
  %143 = load i32, ptr %15, align 4, !tbaa !18
  %144 = sub nsw i32 %142, %143
  %145 = getelementptr inbounds nuw %struct.lv_area_t, ptr %6, i32 0, i32 1
  %146 = load i32, ptr %145, align 4, !tbaa !30
  %147 = add nsw i32 %146, %144
  store i32 %147, ptr %145, align 4, !tbaa !30
  br label %148

148:                                              ; preds = %140, %134
  %149 = getelementptr inbounds nuw %struct.lv_area_t, ptr %6, i32 0, i32 2
  %150 = load i32, ptr %149, align 4, !tbaa !31
  %151 = load i32, ptr %9, align 4, !tbaa !18
  %152 = load i32, ptr %12, align 4, !tbaa !18
  %153 = sub nsw i32 %151, %152
  %154 = sub nsw i32 %153, 2
  %155 = icmp sge i32 %150, %154
  br i1 %155, label %156, label %170

156:                                              ; preds = %148
  %157 = getelementptr inbounds nuw %struct.lv_area_t, ptr %5, i32 0, i32 0
  %158 = load i32, ptr %157, align 4, !tbaa !29
  %159 = load i32, ptr %12, align 4, !tbaa !18
  %160 = icmp slt i32 %159, 13
  br i1 %160, label %161, label %163

161:                                              ; preds = %156
  %162 = load i32, ptr %12, align 4, !tbaa !18
  br label %164

163:                                              ; preds = %156
  br label %164

164:                                              ; preds = %163, %161
  %165 = phi i32 [ %162, %161 ], [ 13, %163 ]
  %166 = add nsw i32 %158, %165
  %167 = getelementptr inbounds nuw %struct.lv_area_t, ptr %6, i32 0, i32 2
  %168 = load i32, ptr %167, align 4, !tbaa !31
  %169 = add nsw i32 %168, %166
  store i32 %169, ptr %167, align 4, !tbaa !31
  br label %178

170:                                              ; preds = %148
  %171 = getelementptr inbounds nuw %struct.lv_area_t, ptr %5, i32 0, i32 0
  %172 = load i32, ptr %171, align 4, !tbaa !29
  %173 = load i32, ptr %16, align 4, !tbaa !18
  %174 = add nsw i32 %172, %173
  %175 = getelementptr inbounds nuw %struct.lv_area_t, ptr %6, i32 0, i32 2
  %176 = load i32, ptr %175, align 4, !tbaa !31
  %177 = add nsw i32 %176, %174
  store i32 %177, ptr %175, align 4, !tbaa !31
  br label %178

178:                                              ; preds = %170, %164
  %179 = getelementptr inbounds nuw %struct.lv_area_t, ptr %6, i32 0, i32 3
  %180 = load i32, ptr %179, align 4, !tbaa !41
  %181 = load i32, ptr %10, align 4, !tbaa !18
  %182 = load i32, ptr %14, align 4, !tbaa !18
  %183 = sub nsw i32 %181, %182
  %184 = sub nsw i32 %183, 2
  %185 = icmp sge i32 %180, %184
  br i1 %185, label %186, label %200

186:                                              ; preds = %178
  %187 = getelementptr inbounds nuw %struct.lv_area_t, ptr %5, i32 0, i32 1
  %188 = load i32, ptr %187, align 4, !tbaa !30
  %189 = load i32, ptr %14, align 4, !tbaa !18
  %190 = icmp slt i32 %189, 13
  br i1 %190, label %191, label %193

191:                                              ; preds = %186
  %192 = load i32, ptr %14, align 4, !tbaa !18
  br label %194

193:                                              ; preds = %186
  br label %194

194:                                              ; preds = %193, %191
  %195 = phi i32 [ %192, %191 ], [ 13, %193 ]
  %196 = add nsw i32 %188, %195
  %197 = getelementptr inbounds nuw %struct.lv_area_t, ptr %6, i32 0, i32 3
  %198 = load i32, ptr %197, align 4, !tbaa !41
  %199 = add nsw i32 %198, %196
  store i32 %199, ptr %197, align 4, !tbaa !41
  br label %208

200:                                              ; preds = %178
  %201 = getelementptr inbounds nuw %struct.lv_area_t, ptr %5, i32 0, i32 1
  %202 = load i32, ptr %201, align 4, !tbaa !30
  %203 = load i32, ptr %15, align 4, !tbaa !18
  %204 = add nsw i32 %202, %203
  %205 = getelementptr inbounds nuw %struct.lv_area_t, ptr %6, i32 0, i32 3
  %206 = load i32, ptr %205, align 4, !tbaa !41
  %207 = add nsw i32 %206, %204
  store i32 %207, ptr %205, align 4, !tbaa !41
  br label %208

208:                                              ; preds = %200, %194
  %209 = load ptr, ptr %4, align 8, !tbaa !3
  %210 = call zeroext i1 @lv_area_is_point_on(ptr noundef %6, ptr noundef %209, i32 noundef 0)
  %211 = zext i1 %210 to i32
  %212 = icmp ne i32 %211, 0
  br i1 %212, label %213, label %214

213:                                              ; preds = %208
  br label %218

214:                                              ; preds = %208
  br label %215

215:                                              ; preds = %214
  %216 = load i32, ptr %8, align 4, !tbaa !18
  %217 = add i32 %216, 1
  store i32 %217, ptr %8, align 4, !tbaa !18
  br label %82, !llvm.loop !46

218:                                              ; preds = %213, %82
  %219 = load i32, ptr %8, align 4, !tbaa !18
  %220 = load ptr, ptr %7, align 8, !tbaa !3
  %221 = getelementptr inbounds nuw %struct._lv_buttonmatrix_t, ptr %220, i32 0, i32 4
  %222 = load i32, ptr %221, align 8, !tbaa !7
  %223 = icmp eq i32 %219, %222
  br i1 %223, label %224, label %225

224:                                              ; preds = %218
  store i32 65535, ptr %8, align 4, !tbaa !18
  br label %225

225:                                              ; preds = %224, %218
  %226 = load i32, ptr %8, align 4, !tbaa !18
  call void @llvm.lifetime.end.p0(i64 4, ptr %16) #4
  call void @llvm.lifetime.end.p0(i64 4, ptr %15) #4
  call void @llvm.lifetime.end.p0(i64 4, ptr %14) #4
  call void @llvm.lifetime.end.p0(i64 4, ptr %13) #4
  call void @llvm.lifetime.end.p0(i64 4, ptr %12) #4
  call void @llvm.lifetime.end.p0(i64 4, ptr %11) #4
  call void @llvm.lifetime.end.p0(i64 4, ptr %10) #4
  call void @llvm.lifetime.end.p0(i64 4, ptr %9) #4
  call void @llvm.lifetime.end.p0(i64 4, ptr %8) #4
  call void @llvm.lifetime.end.p0(i64 8, ptr %7) #4
  call void @llvm.lifetime.end.p0(i64 16, ptr %6) #4
  call void @llvm.lifetime.end.p0(i64 16, ptr %5) #4
  ret i32 %226
}