; Function Attrs: nounwind uwtable
define internal fastcc i32 @get_button_from_point(ptr noundef %0, ptr noundef nonnull %1) unnamed_addr #0 {
  %3 = alloca %struct.lv_area_t, align 4
  %4 = alloca %struct.lv_area_t, align 4
  call void @llvm.lifetime.start.p0(i64 16, ptr nonnull %3) #7
  call void @llvm.lifetime.start.p0(i64 16, ptr nonnull %4) #7
  call void @lv_obj_get_coords(ptr noundef %0, ptr noundef nonnull %3) #7
  %5 = call i32 @lv_obj_get_width(ptr noundef %0) #7
  %6 = call i32 @lv_obj_get_height(ptr noundef %0) #7
  %7 = call ptr @lv_obj_get_style_prop(ptr noundef %0, i32 noundef 0, i8 noundef zeroext 18) #7
  %8 = ptrtoint ptr %7 to i64
  %.sroa.0.0.extract.trunc.i = trunc i64 %8 to i32
  %9 = call ptr @lv_obj_get_style_prop(ptr noundef %0, i32 noundef 0, i8 noundef zeroext 19) #7
  %10 = ptrtoint ptr %9 to i64
  %.sroa.0.0.extract.trunc.i68 = trunc i64 %10 to i32
  %11 = call ptr @lv_obj_get_style_prop(ptr noundef %0, i32 noundef 0, i8 noundef zeroext 16) #7
  %12 = ptrtoint ptr %11 to i64
  %.sroa.0.0.extract.trunc.i69 = trunc i64 %12 to i32
  %13 = call ptr @lv_obj_get_style_prop(ptr noundef %0, i32 noundef 0, i8 noundef zeroext 17) #7
  %14 = ptrtoint ptr %13 to i64
  %.sroa.0.0.extract.trunc.i70 = trunc i64 %14 to i32
  %15 = call ptr @lv_obj_get_style_prop(ptr noundef %0, i32 noundef 0, i8 noundef zeroext 20) #7
  %16 = ptrtoint ptr %15 to i64
  %.sroa.0.0.extract.trunc.i71 = trunc i64 %16 to i32
  %17 = call ptr @lv_obj_get_style_prop(ptr noundef %0, i32 noundef 0, i8 noundef zeroext 21) #7
  %18 = ptrtoint ptr %17 to i64
  %.sroa.0.0.extract.trunc.i72 = trunc i64 %18 to i32
  %19 = sdiv i32 %.sroa.0.0.extract.trunc.i71, 2
  %20 = add nsw i32 %19, 1
  %21 = and i32 %.sroa.0.0.extract.trunc.i71, 1
  %22 = add nsw i32 %20, %21
  %23 = sdiv i32 %.sroa.0.0.extract.trunc.i72, 2
  %24 = add nsw i32 %23, 1
  %25 = and i32 %.sroa.0.0.extract.trunc.i72, 1
  %26 = add nsw i32 %24, %25
  %27 = call i32 @llvm.smin.i32(i32 %22, i32 13)
  %28 = call i32 @llvm.smin.i32(i32 %.sroa.0.0.extract.trunc.i69, i32 13)
  %29 = call i32 @llvm.smin.i32(i32 %.sroa.0.0.extract.trunc.i70, i32 13)
  %30 = getelementptr inbounds nuw i8, ptr %0, i64 88
  %31 = load i32, ptr %30, align 8, !tbaa !3
  %.not77 = icmp eq i32 %31, 0
  br i1 %.not77, label %._crit_edge, label %.lr.ph

.lr.ph:                                           ; preds = %2
  %32 = call i32 @llvm.smin.i32(i32 %.sroa.0.0.extract.trunc.i68, i32 13)
  %33 = getelementptr inbounds nuw i8, ptr %0, i64 72
  %34 = getelementptr inbounds nuw i8, ptr %4, i64 4
  %35 = getelementptr inbounds nuw i8, ptr %4, i64 8
  %36 = getelementptr inbounds nuw i8, ptr %4, i64 12
  %37 = getelementptr inbounds nuw i8, ptr %3, i64 4
  %38 = add i32 %5, -2
  %39 = sub i32 %38, %32
  %40 = add i32 %6, -2
  %41 = sub i32 %40, %29
  br label %42

42:                                               ; preds = %.lr.ph, %55
  %indvars.iv = phi i64 [ 0, %.lr.ph ], [ %indvars.iv.next, %55 ]
  %43 = load ptr, ptr %33, align 8, !tbaa !14
  %44 = getelementptr inbounds nuw %struct.lv_area_t, ptr %43, i64 %indvars.iv
  %45 = load i32, ptr %44, align 4, !tbaa !27
  %46 = getelementptr inbounds nuw i8, ptr %44, i64 4
  %47 = load i32, ptr %46, align 4, !tbaa !28
  %48 = getelementptr inbounds nuw i8, ptr %44, i64 8
  %49 = load i32, ptr %48, align 4, !tbaa !29
  %50 = getelementptr inbounds nuw i8, ptr %44, i64 12
  %51 = load i32, ptr %50, align 4, !tbaa !37
  %.not = icmp sgt i32 %45, %.sroa.0.0.extract.trunc.i
  %52 = load i32, ptr %3, align 4
  %minmaxop = select i1 %.not, i32 %26, i32 %.sroa.0.0.extract.trunc.i
  %.pn.v = call i32 @llvm.smin.i32(i32 %minmaxop, i32 13)
  %.pn = sub nsw i32 %52, %.pn.v
  %storemerge = add nsw i32 %.pn, %45
  store i32 %storemerge, ptr %4, align 4, !tbaa !27
  %.not59 = icmp sgt i32 %47, %28
  %53 = load i32, ptr %37, align 4
  %.pn61.v = select i1 %.not59, i32 %27, i32 %28
  %.pn61 = sub i32 %47, %.pn61.v
  %storemerge60 = add i32 %.pn61, %53
  store i32 %storemerge60, ptr %34, align 4, !tbaa !28
  %.not62 = icmp slt i32 %49, %39
  %minmaxop78 = select i1 %.not62, i32 %26, i32 %.sroa.0.0.extract.trunc.i68
  %.pn64.v = call i32 @llvm.smin.i32(i32 %minmaxop78, i32 13)
  %.pn64 = add i32 %.pn64.v, %49
  %storemerge63 = add i32 %.pn64, %52
  store i32 %storemerge63, ptr %35, align 4, !tbaa !29
  %.not65 = icmp slt i32 %51, %41
  %.pn67.v = select i1 %.not65, i32 %27, i32 %29
  %.pn67 = add i32 %.pn67.v, %51
  %storemerge66 = add i32 %.pn67, %53
  store i32 %storemerge66, ptr %36, align 4, !tbaa !37
  %54 = call zeroext i1 @lv_area_is_point_on(ptr noundef nonnull %4, ptr noundef nonnull %1, i32 noundef 0) #7
  %.pre.pre = load i32, ptr %30, align 8, !tbaa !3
  br i1 %54, label %._crit_edge.loopexit, label %55

55:                                               ; preds = %42
  %indvars.iv.next = add nuw nsw i64 %indvars.iv, 1
  %56 = zext i32 %.pre.pre to i64
  %57 = icmp samesign ult i64 %indvars.iv.next, %56
  br i1 %57, label %42, label %._crit_edge.loopexit, !llvm.loop !41

._crit_edge.loopexit:                             ; preds = %42, %55
  %.0.lcssa.ph.in = phi i64 [ %indvars.iv.next, %55 ], [ %indvars.iv, %42 ]
  %.0.lcssa.ph = trunc i64 %.0.lcssa.ph.in to i32
  br label %._crit_edge

._crit_edge:                                      ; preds = %._crit_edge.loopexit, %2
  %58 = phi i32 [ 0, %2 ], [ %.pre.pre, %._crit_edge.loopexit ]
  %.0.lcssa = phi i32 [ 0, %2 ], [ %.0.lcssa.ph, %._crit_edge.loopexit ]
  %59 = icmp eq i32 %.0.lcssa, %58
  %spec.store.select = select i1 %59, i32 65535, i32 %.0.lcssa
  call void @llvm.lifetime.end.p0(i64 16, ptr nonnull %4) #7
  call void @llvm.lifetime.end.p0(i64 16, ptr nonnull %3) #7
  ret i32 %spec.store.select
}